target datalayout = "e-m:e-p270:32:32-p271:32:32-p272:64:64-i64:64-i128:128-f80:128-n8:16:32:64-S128"
target triple = "x86_64-pc-linux-gnu"

%struct._sapi_module_struct = type { ptr, ptr, ptr, ptr, ptr, ptr, ptr, ptr, ptr, ptr, ptr, ptr, ptr, ptr, ptr, ptr, ptr, ptr, ptr, ptr, ptr, ptr, ptr, ptr, i32, i32, ptr, ptr, ptr, ptr, ptr, ptr, i32, ptr, ptr, ptr }
%struct._sapi_globals_struct = type { ptr, %struct.sapi_request_info, %struct.sapi_headers_struct, i64, i8, i8, %struct.stat, ptr, ptr, ptr, i64, i32, i8, double, %struct._zend_array, %struct._zval_struct, %struct._zend_fcall_info_cache, %struct.sapi_request_parse_body_context }
%struct.sapi_request_info = type { ptr, ptr, ptr, i64, ptr, ptr, ptr, ptr, i8, i8, i8, ptr, ptr, ptr, ptr, ptr, ptr, ptr, i32, i32, ptr, i32 }
%struct.sapi_headers_struct = type { %struct._zend_llist, i32, i8, ptr, ptr }
%struct._zend_llist = type { ptr, ptr, i64, i64, ptr, i8, ptr }
%struct.stat = type { i64, i64, i64, i32, i32, i32, i32, i64, i64, i64, i64, %struct.timespec, %struct.timespec, %struct.timespec, [3 x i64] }
%struct.timespec = type { i64, i64 }
%struct._zend_array = type { %struct._zend_refcounted_h, %union.anon.0, i32, %union.anon.1, i32, i32, i32, i32, i64, ptr }
%struct._zend_refcounted_h = type { i32, %union.anon }
%union.anon = type { i32 }
%union.anon.0 = type { i32 }
%union.anon.1 = type { ptr }
%struct._zval_struct = type { %union._zend_value, %union.anon.3, %union.anon.6 }
%union._zend_value = type { i64 }
%union.anon.3 = type { i32 }
%union.anon.6 = type { i32 }
%struct._zend_fcall_info_cache = type { ptr, ptr, ptr, ptr, ptr }
%struct.sapi_request_parse_body_context = type { i8, [5 x %struct.anon.7] }
%struct.anon.7 = type { i8, i64 }
%struct.timeval = type { i64, i64 }

@sapi_module = dso_local global %struct._sapi_module_struct zeroinitializer, align 8
@sapi_globals = dso_local global %struct._sapi_globals_struct zeroinitializer, align 8

; Function Attrs: nounwind uwtable
define dso_local double @sapi_get_request_time() #0 {
  %1 = alloca double, align 8
  %2 = alloca %struct.timeval, align 8
  %3 = load double, ptr getelementptr inbounds nuw (%struct._sapi_globals_struct, ptr @sapi_globals, i32 0, i32 13), align 8, !tbaa !122
  %4 = fcmp une double %3, 0.000000e+00
  br i1 %4, label %5, label %7

5:                                                ; preds = %0
  %6 = load double, ptr getelementptr inbounds nuw (%struct._sapi_globals_struct, ptr @sapi_globals, i32 0, i32 13), align 8, !tbaa !122
  store double %6, ptr %1, align 8
  br label %32

7:                                                ; preds = %0
  %8 = load ptr, ptr getelementptr inbounds nuw (%struct._sapi_module_struct, ptr @sapi_module, i32 0, i32 18), align 8, !tbaa !176
  %9 = icmp ne ptr %8, null
  br i1 %9, label %10, label %14

10:                                               ; preds = %7
  %11 = load ptr, ptr getelementptr inbounds nuw (%struct._sapi_module_struct, ptr @sapi_module, i32 0, i32 18), align 8, !tbaa !176
  %12 = call i32 %11(ptr noundef getelementptr inbounds nuw (%struct._sapi_globals_struct, ptr @sapi_globals, i32 0, i32 13))
  %13 = icmp eq i32 %12, -1
  br i1 %13, label %14, label %30

14:                                               ; preds = %10, %7
  call void @llvm.lifetime.start.p0(i64 16, ptr %2) #15
  call void @llvm.memset.p0.i64(ptr align 8 %2, i8 0, i64 16, i1 false)
  %15 = call i32 @gettimeofday(ptr noundef %2, ptr noundef null) #15
  %16 = icmp ne i32 %15, 0
  br i1 %16, label %26, label %17

17:                                               ; preds = %14
  %18 = getelementptr inbounds nuw %struct.timeval, ptr %2, i32 0, i32 0
  %19 = load i64, ptr %18, align 8, !tbaa !177
  %20 = sitofp i64 %19 to double
  %21 = getelementptr inbounds nuw %struct.timeval, ptr %2, i32 0, i32 1
  %22 = load i64, ptr %21, align 8, !tbaa !179
  %23 = sitofp i64 %22 to double
  %24 = fdiv double %23, 1.000000e+06
  %25 = fadd double %20, %24
  store double %25, ptr getelementptr inbounds nuw (%struct._sapi_globals_struct, ptr @sapi_globals, i32 0, i32 13), align 8, !tbaa !122
  br label %29

26:                                               ; preds = %14
  %27 = call i64 @time(ptr noundef null) #15
  %28 = sitofp i64 %27 to double
  store double %28, ptr getelementptr inbounds nuw (%struct._sapi_globals_struct, ptr @sapi_globals, i32 0, i32 13), align 8, !tbaa !122
  br label %29

29:                                               ; preds = %26, %17
  call void @llvm.lifetime.end.p0(i64 16, ptr %2) #15
  br label %30

30:                                               ; preds = %29, %10
  %31 = load double, ptr getelementptr inbounds nuw (%struct._sapi_globals_struct, ptr @sapi_globals, i32 0, i32 13), align 8, !tbaa !122
  store double %31, ptr %1, align 8
  br label %32

32:                                               ; preds = %30, %5
  %33 = load double, ptr %1, align 8
  ret double %33
}