; Function Attrs: nounwind uwtable
define dso_local double @sapi_get_request_time() local_unnamed_addr #0 {
  %1 = alloca %struct.timeval, align 8
  %2 = load double, ptr getelementptr inbounds nuw (i8, ptr @sapi_globals, i64 440), align 8, !tbaa !105
  %3 = fcmp une double %2, 0.000000e+00
  br i1 %3, label %23, label %4

4:                                                ; preds = %0
  %5 = load ptr, ptr getelementptr inbounds nuw (i8, ptr @sapi_module, i64 144), align 8, !tbaa !158
  %.not = icmp eq ptr %5, null
  br i1 %.not, label %9, label %6

6:                                                ; preds = %4
  %7 = tail call i32 %5(ptr noundef nonnull getelementptr inbounds nuw (i8, ptr @sapi_globals, i64 440)) #19
  %8 = icmp eq i32 %7, -1
  br i1 %8, label %9, label %._crit_edge

._crit_edge:                                      ; preds = %6
  %.pre = load double, ptr getelementptr inbounds nuw (i8, ptr @sapi_globals, i64 440), align 8, !tbaa !105
  br label %23

9:                                                ; preds = %6, %4
  call void @llvm.lifetime.start.p0(i64 16, ptr nonnull %1) #19
  call void @llvm.memset.p0.i64(ptr noundef nonnull align 8 dereferenceable(16) %1, i8 0, i64 16, i1 false)
  %10 = call i32 @gettimeofday(ptr noundef nonnull %1, ptr noundef null) #19
  %.not3 = icmp eq i32 %10, 0
  br i1 %.not3, label %11, label %19

11:                                               ; preds = %9
  %12 = load i64, ptr %1, align 8, !tbaa !159
  %13 = sitofp i64 %12 to double
  %14 = getelementptr inbounds nuw i8, ptr %1, i64 8
  %15 = load i64, ptr %14, align 8, !tbaa !161
  %16 = sitofp i64 %15 to double
  %17 = fdiv double %16, 1.000000e+06
  %18 = fadd double %17, %13
  br label %22

19:                                               ; preds = %9
  %20 = tail call i64 @time(ptr noundef null) #19
  %21 = sitofp i64 %20 to double
  br label %22

22:                                               ; preds = %19, %11
  %storemerge = phi double [ %18, %11 ], [ %21, %19 ]
  store double %storemerge, ptr getelementptr inbounds nuw (i8, ptr @sapi_globals, i64 440), align 8, !tbaa !105
  call void @llvm.lifetime.end.p0(i64 16, ptr nonnull %1) #19
  br label %23

23:                                               ; preds = %22, %._crit_edge, %0
  %.0 = phi double [ %2, %0 ], [ %.pre, %._crit_edge ], [ %storemerge, %22 ]
  ret double %.0
}